target datalayout = "e-m:e-p270:32:32-p271:32:32-p272:64:64-i64:64-i128:128-f80:128-n8:16:32:64-S128"
target triple = "x86_64-pc-linux-gnu"

%struct.AVCodecContext = type { ptr, i32, i32, ptr, i32, i32, ptr, ptr, ptr, i64, i32, i32, ptr, i32, %struct.AVRational, %struct.AVRational, %struct.AVRational, i32, i32, i32, i32, i32, %struct.AVRational, i32, i32, i32, i32, i32, i32, i32, i32, i32, i32, i32, ptr, ptr, i32, float, float, float, float, float, float, float, float, float, i32, i32, i32, i32, i32, i32, i32, i32, i32, i32, i32, i32, ptr, ptr, ptr, i32, i32, i32, i32, i32, i32, i32, i32, i32, i32, %struct.AVChannelLayout, i32, i32, i32, i32, i32, i32, i32, i32, ptr, i32, i32, i32, float, float, i32, i32, i32, i32, i32, ptr, i64, i64, float, float, i32, i32, ptr, ptr, i32, i32, i32, i32, i32, ptr, ptr, ptr, ptr, i32, i32, [8 x i64], i32, i32, i32, i32, i32, i32, i32, ptr, ptr, i32, i32, i32, i32, i32, i32, i32, i32, i32, i32, ptr, ptr, i32, i32, ptr, ptr, ptr, ptr, i32, i32, i64, i32, i32, i64, ptr, i64, ptr, i32, ptr, i32 }
%struct.AVRational = type { i32, i32 }
%struct.AVChannelLayout = type { i32, i32, %union.anon, ptr }
%union.anon = type { i64 }
%struct.PixblockDSPContext = type { ptr, ptr, ptr, ptr }

; Function Attrs: cold nounwind optsize uwtable
define void @ff_pixblockdsp_init(ptr noundef %0, ptr noundef %1) #0 {
  %3 = alloca ptr, align 8
  %4 = alloca ptr, align 8
  %5 = alloca i32, align 4
  store ptr %0, ptr %3, align 8, !tbaa !4
  store ptr %1, ptr %4, align 8, !tbaa !9
  call void @llvm.lifetime.start.p0(i64 4, ptr %5) #3
  %6 = load ptr, ptr %4, align 8, !tbaa !9
  %7 = getelementptr inbounds nuw %struct.AVCodecContext, ptr %6, i32 0, i32 115
  %8 = load i32, ptr %7, align 4, !tbaa !11
  %9 = icmp sgt i32 %8, 8
  %10 = zext i1 %9 to i32
  store i32 %10, ptr %5, align 4, !tbaa !31
  %11 = load ptr, ptr %3, align 8, !tbaa !4
  %12 = getelementptr inbounds nuw %struct.PixblockDSPContext, ptr %11, i32 0, i32 2
  store ptr @diff_pixels_c, ptr %12, align 8, !tbaa !32
  %13 = load ptr, ptr %3, align 8, !tbaa !4
  %14 = getelementptr inbounds nuw %struct.PixblockDSPContext, ptr %13, i32 0, i32 3
  store ptr @diff_pixels_c, ptr %14, align 8, !tbaa !34
  %15 = load ptr, ptr %4, align 8, !tbaa !9
  %16 = getelementptr inbounds nuw %struct.AVCodecContext, ptr %15, i32 0, i32 115
  %17 = load i32, ptr %16, align 4, !tbaa !11
  switch i32 %17, label %23 [
    i32 9, label %18
    i32 10, label %18
    i32 12, label %18
    i32 14, label %18
  ]

18:                                               ; preds = %2, %2, %2, %2
  %19 = load ptr, ptr %3, align 8, !tbaa !4
  %20 = getelementptr inbounds nuw %struct.PixblockDSPContext, ptr %19, i32 0, i32 1
  store ptr @get_pixels_unaligned_16_c, ptr %20, align 8, !tbaa !35
  %21 = load ptr, ptr %3, align 8, !tbaa !4
  %22 = getelementptr inbounds nuw %struct.PixblockDSPContext, ptr %21, i32 0, i32 0
  store ptr @get_pixels_16_c, ptr %22, align 8, !tbaa !36
  br label %39

23:                                               ; preds = %2
  %24 = load ptr, ptr %4, align 8, !tbaa !9
  %25 = getelementptr inbounds nuw %struct.AVCodecContext, ptr %24, i32 0, i32 115
  %26 = load i32, ptr %25, align 4, !tbaa !11
  %27 = icmp sle i32 %26, 8
  br i1 %27, label %33, label %28

28:                                               ; preds = %23
  %29 = load ptr, ptr %4, align 8, !tbaa !9
  %30 = getelementptr inbounds nuw %struct.AVCodecContext, ptr %29, i32 0, i32 2
  %31 = load i32, ptr %30, align 4, !tbaa !37
  %32 = icmp ne i32 %31, 0
  br i1 %32, label %33, label %38

33:                                               ; preds = %28, %23
  %34 = load ptr, ptr %3, align 8, !tbaa !4
  %35 = getelementptr inbounds nuw %struct.PixblockDSPContext, ptr %34, i32 0, i32 0
  store ptr @get_pixels_8_c, ptr %35, align 8, !tbaa !36
  %36 = load ptr, ptr %3, align 8, !tbaa !4
  %37 = getelementptr inbounds nuw %struct.PixblockDSPContext, ptr %36, i32 0, i32 1
  store ptr @get_pixels_8_c, ptr %37, align 8, !tbaa !35
  br label %38

38:                                               ; preds = %33, %28
  br label %39

39:                                               ; preds = %38, %18
  call void @llvm.lifetime.end.p0(i64 4, ptr %5) #3
  ret void
}