; Function Attrs: cold mustprogress nofree norecurse nosync nounwind optsize willreturn memory(argmem: readwrite) uwtable
define void @ff_pixblockdsp_init(ptr noundef writeonly captures(none) initializes((16, 32)) %0, ptr noundef readonly captures(none) %1) local_unnamed_addr #0 {
  %3 = getelementptr inbounds nuw i8, ptr %1, i64 652
  %4 = getelementptr inbounds nuw i8, ptr %0, i64 16
  store ptr @diff_pixels_c, ptr %4, align 8, !tbaa !4
  %5 = getelementptr inbounds nuw i8, ptr %0, i64 24
  store ptr @diff_pixels_c, ptr %5, align 8, !tbaa !9
  %6 = load i32, ptr %3, align 4, !tbaa !10
  switch i32 %6, label %9 [
    i32 9, label %7
    i32 10, label %7
    i32 12, label %7
    i32 14, label %7
  ]

7:                                                ; preds = %2, %2, %2, %2
  %8 = getelementptr inbounds nuw i8, ptr %0, i64 8
  store ptr @get_pixels_unaligned_16_c, ptr %8, align 8, !tbaa !30
  store ptr @get_pixels_16_c, ptr %0, align 8, !tbaa !31
  br label %16

9:                                                ; preds = %2
  %10 = icmp slt i32 %6, 9
  br i1 %10, label %14, label %11

11:                                               ; preds = %9
  %12 = getelementptr inbounds nuw i8, ptr %1, i64 12
  %13 = load i32, ptr %12, align 4, !tbaa !32
  %.not = icmp eq i32 %13, 0
  br i1 %.not, label %16, label %14

14:                                               ; preds = %11, %9
  store ptr @get_pixels_8_c, ptr %0, align 8, !tbaa !31
  %15 = getelementptr inbounds nuw i8, ptr %0, i64 8
  store ptr @get_pixels_8_c, ptr %15, align 8, !tbaa !30
  br label %16

16:                                               ; preds = %11, %14, %7
  ret void
}